target datalayout = "e-m:e-p270:32:32-p271:32:32-p272:64:64-i64:64-i128:128-f80:128-n8:16:32:64-S128"
target triple = "x86_64-unknown-linux-gnu"

%"class.std::__cxx11::basic_string" = type { %"struct.std::__cxx11::basic_string<char>::_Alloc_hider", i64, %union.anon }
%"struct.std::__cxx11::basic_string<char>::_Alloc_hider" = type { ptr }
%union.anon = type { i64, [8 x i8] }
%"struct.std::__detail::_List_node_header" = type { %"struct.std::__detail::_List_node_base", i64 }
%"struct.std::__detail::_List_node_base" = type { ptr, ptr }
%"struct.Assimp::LWS::NodeDesc" = type { i32, %"class.std::__cxx11::basic_string", i32, i32, i32, ptr, %"class.std::__cxx11::list.11", %class.aiVector3t, i8, %struct.aiColor3D, float, i32, i32, float, float, %"class.std::__cxx11::list.16", ptr }
%"class.std::__cxx11::list.11" = type { %"class.std::__cxx11::_List_base.12" }
%"class.std::__cxx11::_List_base.12" = type { %"struct.std::__cxx11::_List_base<Assimp::LWO::Envelope, std::allocator<Assimp::LWO::Envelope>>::_List_impl" }
%"struct.std::__cxx11::_List_base<Assimp::LWO::Envelope, std::allocator<Assimp::LWO::Envelope>>::_List_impl" = type { %"struct.std::__detail::_List_node_header" }
%class.aiVector3t = type { float, float, float }
%struct.aiColor3D = type { float, float, float }
%"class.std::__cxx11::list.16" = type { %"class.std::__cxx11::_List_base.17" }
%"class.std::__cxx11::_List_base.17" = type { %"struct.std::__cxx11::_List_base<Assimp::LWS::NodeDesc *, std::allocator<Assimp::LWS::NodeDesc *>>::_List_impl" }
%"struct.std::__cxx11::_List_base<Assimp::LWS::NodeDesc *, std::allocator<Assimp::LWS::NodeDesc *>>::_List_impl" = type { %"struct.std::__detail::_List_node_header" }
%struct.aiNode = type { %struct.aiString, %class.aiMatrix4x4t, ptr, i32, ptr, i32, ptr, ptr }
%struct.aiString = type { i32, [1024 x i8] }
%class.aiMatrix4x4t = type { float, float, float, float, float, float, float, float, float, float, float, float, float, float, float, float }

@.str.12 = private unnamed_addr constant [3 x i8] c"\\/\00", align 1
@.str.13 = private unnamed_addr constant [10 x i8] c"%s_(%08X)\00", align 1

; Function Attrs: mustprogress uwtable
define hidden void @_ZN6Assimp11LWSImporter13SetupNodeNameEP6aiNodeRNS_3LWS8NodeDescE(ptr noundef nonnull align 8 dereferenceable(113) %this, ptr noundef %nd, ptr noundef nonnull align 8 dereferenceable(168) %src) #2 align 2 personality ptr @__gxx_personality_v0 {
entry:
  %this.addr = alloca ptr, align 8
  %nd.addr = alloca ptr, align 8
  %src.addr = alloca ptr, align 8
  %combined = alloca i32, align 4
  %s = alloca i64, align 8
  %t = alloca i64, align 8
  %ref.tmp = alloca %"class.std::__cxx11::basic_string", align 8
  %ref.tmp10 = alloca %"class.std::__cxx11::basic_string", align 8
  %ref.tmp11 = alloca %"class.std::__cxx11::basic_string", align 8
  %exn.slot = alloca ptr, align 8
  %ehselector.slot = alloca i32, align 4
  store ptr %this, ptr %this.addr, align 8
  store ptr %nd, ptr %nd.addr, align 8
  store ptr %src, ptr %src.addr, align 8
  %0 = load ptr, ptr %src.addr, align 8
  %number = getelementptr inbounds %"struct.Assimp::LWS::NodeDesc", ptr %0, i32 0, i32 3
  %1 = load i32, ptr %number, align 4
  %2 = load ptr, ptr %src.addr, align 8
  %type = getelementptr inbounds %"struct.Assimp::LWS::NodeDesc", ptr %2, i32 0, i32 0
  %3 = load i32, ptr %type, align 8
  %shl = shl i32 %3, 28
  %or = or i32 %1, %shl
  store i32 %or, ptr %combined, align 4
  %4 = load ptr, ptr %src.addr, align 8
  %type2 = getelementptr inbounds %"struct.Assimp::LWS::NodeDesc", ptr %4, i32 0, i32 0
  %5 = load i32, ptr %type2, align 8
  %cmp = icmp eq i32 %5, 1
  br i1 %cmp, label %if.then, label %if.end24

if.then:                                          ; preds = %entry
  %6 = load ptr, ptr %src.addr, align 8
  %path = getelementptr inbounds %"struct.Assimp::LWS::NodeDesc", ptr %6, i32 0, i32 1
  %call = call noundef i64 @_ZNKSt7__cxx1112basic_stringIcSt11char_traitsIcESaIcEE6lengthEv(ptr noundef nonnull align 8 dereferenceable(32) %path) #14
  %tobool = icmp ne i64 %call, 0
  br i1 %tobool, label %if.then3, label %if.end23

if.then3:                                         ; preds = %if.then
  %7 = load ptr, ptr %src.addr, align 8
  %path4 = getelementptr inbounds %"struct.Assimp::LWS::NodeDesc", ptr %7, i32 0, i32 1
  %call5 = call noundef i64 @_ZNKSt7__cxx1112basic_stringIcSt11char_traitsIcESaIcEE12find_last_ofEPKcm(ptr noundef nonnull align 8 dereferenceable(32) %path4, ptr noundef @.str.12, i64 noundef -1) #14
  store i64 %call5, ptr %s, align 8
  %8 = load i64, ptr %s, align 8
  %cmp6 = icmp eq i64 %8, -1
  br i1 %cmp6, label %if.then7, label %if.else

if.then7:                                         ; preds = %if.then3
  store i64 0, ptr %s, align 8
  br label %if.end

if.else:                                          ; preds = %if.then3
  %9 = load i64, ptr %s, align 8
  %inc = add i64 %9, 1
  store i64 %inc, ptr %s, align 8
  br label %if.end

if.end:                                           ; preds = %if.else, %if.then7
  %10 = load ptr, ptr %src.addr, align 8
  %path8 = getelementptr inbounds %"struct.Assimp::LWS::NodeDesc", ptr %10, i32 0, i32 1
  %11 = load i64, ptr %s, align 8
  call void @_ZNKSt7__cxx1112basic_stringIcSt11char_traitsIcESaIcEE6substrEmm(ptr sret(%"class.std::__cxx11::basic_string") align 8 %ref.tmp, ptr noundef nonnull align 8 dereferenceable(32) %path8, i64 noundef %11, i64 noundef -1)
  %call9 = call noundef i64 @_ZNKSt7__cxx1112basic_stringIcSt11char_traitsIcESaIcEE12find_last_ofEcm(ptr noundef nonnull align 8 dereferenceable(32) %ref.tmp, i8 noundef signext 46, i64 noundef -1) #14
  call void @_ZNSt7__cxx1112basic_stringIcSt11char_traitsIcESaIcEED1Ev(ptr noundef nonnull align 8 dereferenceable(32) %ref.tmp) #14
  store i64 %call9, ptr %t, align 8
  %12 = load ptr, ptr %nd.addr, align 8
  %mName = getelementptr inbounds %struct.aiNode, ptr %12, i32 0, i32 0
  %data = getelementptr inbounds %struct.aiString, ptr %mName, i32 0, i32 1
  %arraydecay = getelementptr inbounds [1024 x i8], ptr %data, i64 0, i64 0
  %13 = load ptr, ptr %src.addr, align 8
  %path12 = getelementptr inbounds %"struct.Assimp::LWS::NodeDesc", ptr %13, i32 0, i32 1
  %14 = load i64, ptr %s, align 8
  call void @_ZNKSt7__cxx1112basic_stringIcSt11char_traitsIcESaIcEE6substrEmm(ptr sret(%"class.std::__cxx11::basic_string") align 8 %ref.tmp11, ptr noundef nonnull align 8 dereferenceable(32) %path12, i64 noundef %14, i64 noundef -1)
  %15 = load i64, ptr %t, align 8
  invoke void @_ZNKSt7__cxx1112basic_stringIcSt11char_traitsIcESaIcEE6substrEmm(ptr sret(%"class.std::__cxx11::basic_string") align 8 %ref.tmp10, ptr noundef nonnull align 8 dereferenceable(32) %ref.tmp11, i64 noundef 0, i64 noundef %15)
          to label %invoke.cont unwind label %lpad

invoke.cont:                                      ; preds = %if.end
  %call13 = call noundef ptr @_ZNKSt7__cxx1112basic_stringIcSt11char_traitsIcESaIcEE5c_strEv(ptr noundef nonnull align 8 dereferenceable(32) %ref.tmp10) #14
  %16 = load i32, ptr %combined, align 4
  %call14 = call i32 (ptr, i64, ptr, ...) @snprintf(ptr noundef %arraydecay, i64 noundef 1024, ptr noundef @.str.13, ptr noundef %call13, i32 noundef %16) #14
  %17 = load ptr, ptr %nd.addr, align 8
  %mName15 = getelementptr inbounds %struct.aiNode, ptr %17, i32 0, i32 0
  %length = getelementptr inbounds %struct.aiString, ptr %mName15, i32 0, i32 0
  store i32 %call14, ptr %length, align 8
  call void @_ZNSt7__cxx1112basic_stringIcSt11char_traitsIcESaIcEED1Ev(ptr noundef nonnull align 8 dereferenceable(32) %ref.tmp10) #14
  call void @_ZNSt7__cxx1112basic_stringIcSt11char_traitsIcESaIcEED1Ev(ptr noundef nonnull align 8 dereferenceable(32) %ref.tmp11) #14
  %18 = load ptr, ptr %nd.addr, align 8
  %mName16 = getelementptr inbounds %struct.aiNode, ptr %18, i32 0, i32 0
  %length17 = getelementptr inbounds %struct.aiString, ptr %mName16, i32 0, i32 0
  %19 = load i32, ptr %length17, align 8
  %conv = zext i32 %19 to i64
  %cmp18 = icmp ugt i64 %conv, 1024
  br i1 %cmp18, label %if.then19, label %if.end22

if.then19:                                        ; preds = %invoke.cont
  %20 = load ptr, ptr %nd.addr, align 8
  %mName20 = getelementptr inbounds %struct.aiNode, ptr %20, i32 0, i32 0
  %length21 = getelementptr inbounds %struct.aiString, ptr %mName20, i32 0, i32 0
  store i32 1024, ptr %length21, align 8
  br label %if.end22

lpad:                                             ; preds = %if.end
  %21 = landingpad { ptr, i32 }
          cleanup
  %22 = extractvalue { ptr, i32 } %21, 0
  store ptr %22, ptr %exn.slot, align 8
  %23 = extractvalue { ptr, i32 } %21, 1
  store i32 %23, ptr %ehselector.slot, align 4
  call void @_ZNSt7__cxx1112basic_stringIcSt11char_traitsIcESaIcEED1Ev(ptr noundef nonnull align 8 dereferenceable(32) %ref.tmp11) #14
  br label %eh.resume

if.end22:                                         ; preds = %if.then19, %invoke.cont
  br label %return

if.end23:                                         ; preds = %if.then
  br label %if.end24

if.end24:                                         ; preds = %if.end23, %entry
  %24 = load ptr, ptr %nd.addr, align 8
  %mName25 = getelementptr inbounds %struct.aiNode, ptr %24, i32 0, i32 0
  %data26 = getelementptr inbounds %struct.aiString, ptr %mName25, i32 0, i32 1
  %arraydecay27 = getelementptr inbounds [1024 x i8], ptr %data26, i64 0, i64 0
  %25 = load ptr, ptr %src.addr, align 8
  %name = getelementptr inbounds %"struct.Assimp::LWS::NodeDesc", ptr %25, i32 0, i32 5
  %26 = load ptr, ptr %name, align 8
  %27 = load i32, ptr %combined, align 4
  %call28 = call i32 (ptr, i64, ptr, ...) @snprintf(ptr noundef %arraydecay27, i64 noundef 1024, ptr noundef @.str.13, ptr noundef %26, i32 noundef %27) #14
  %28 = load ptr, ptr %nd.addr, align 8
  %mName29 = getelementptr inbounds %struct.aiNode, ptr %28, i32 0, i32 0
  %length30 = getelementptr inbounds %struct.aiString, ptr %mName29, i32 0, i32 0
  store i32 %call28, ptr %length30, align 8
  br label %return

return:                                           ; preds = %if.end24, %if.end22
  ret void

eh.resume:                                        ; preds = %lpad
  %exn = load ptr, ptr %exn.slot, align 8
  %sel = load i32, ptr %ehselector.slot, align 4
  %lpad.val = insertvalue { ptr, i32 } poison, ptr %exn, 0
  %lpad.val31 = insertvalue { ptr, i32 } %lpad.val, i32 %sel, 1
  resume { ptr, i32 } %lpad.val31
}