; Function Attrs: mustprogress uwtable
define hidden void @_ZN6Assimp11LWSImporter13SetupNodeNameEP6aiNodeRNS_3LWS8NodeDescE(ptr nocapture nonnull readnone align 8 %this, ptr nocapture noundef %nd, ptr noundef nonnull align 8 dereferenceable(168) %src) local_unnamed_addr #0 align 2 personality ptr @__gxx_personality_v0 {
entry:
  %ref.tmp = alloca %"class.std::__cxx11::basic_string", align 8
  %ref.tmp10 = alloca %"class.std::__cxx11::basic_string", align 8
  %ref.tmp11 = alloca %"class.std::__cxx11::basic_string", align 8
  %number = getelementptr inbounds i8, ptr %src, i64 44
  %0 = load i32, ptr %number, align 4
  %1 = load i32, ptr %src, align 8
  %shl = shl i32 %1, 28
  %or = or i32 %shl, %0
  %cmp = icmp eq i32 %1, 1
  br i1 %cmp, label %if.then, label %if.end24

if.then:                                          ; preds = %entry
  %path = getelementptr inbounds i8, ptr %src, i64 8
  %call = tail call noundef i64 @_ZNKSt7__cxx1112basic_stringIcSt11char_traitsIcESaIcEE6lengthEv(ptr noundef nonnull align 8 dereferenceable(32) %path) #18
  %tobool.not = icmp eq i64 %call, 0
  br i1 %tobool.not, label %if.end24, label %if.then3

if.then3:                                         ; preds = %if.then
  %call5 = tail call noundef i64 @_ZNKSt7__cxx1112basic_stringIcSt11char_traitsIcESaIcEE12find_last_ofEPKcm(ptr noundef nonnull align 8 dereferenceable(32) %path, ptr noundef nonnull @.str.12, i64 noundef -1) #18
  %inc = add i64 %call5, 1
  call void @_ZNKSt7__cxx1112basic_stringIcSt11char_traitsIcESaIcEE6substrEmm(ptr nonnull sret(%"class.std::__cxx11::basic_string") align 8 %ref.tmp, ptr noundef nonnull align 8 dereferenceable(32) %path, i64 noundef %inc, i64 noundef -1)
  %call9 = call noundef i64 @_ZNKSt7__cxx1112basic_stringIcSt11char_traitsIcESaIcEE12find_last_ofEcm(ptr noundef nonnull align 8 dereferenceable(32) %ref.tmp, i8 noundef signext 46, i64 noundef -1) #18
  call void @_ZNSt7__cxx1112basic_stringIcSt11char_traitsIcESaIcEED1Ev(ptr noundef nonnull align 8 dereferenceable(32) %ref.tmp) #18
  call void @_ZNKSt7__cxx1112basic_stringIcSt11char_traitsIcESaIcEE6substrEmm(ptr nonnull sret(%"class.std::__cxx11::basic_string") align 8 %ref.tmp11, ptr noundef nonnull align 8 dereferenceable(32) %path, i64 noundef %inc, i64 noundef -1)
  invoke void @_ZNKSt7__cxx1112basic_stringIcSt11char_traitsIcESaIcEE6substrEmm(ptr nonnull sret(%"class.std::__cxx11::basic_string") align 8 %ref.tmp10, ptr noundef nonnull align 8 dereferenceable(32) %ref.tmp11, i64 noundef 0, i64 noundef %call9)
          to label %invoke.cont unwind label %lpad

invoke.cont:                                      ; preds = %if.then3
  %data = getelementptr inbounds i8, ptr %nd, i64 4
  %call13 = call noundef ptr @_ZNKSt7__cxx1112basic_stringIcSt11char_traitsIcESaIcEE5c_strEv(ptr noundef nonnull align 8 dereferenceable(32) %ref.tmp10) #18
  %call14 = call i32 (ptr, i64, ptr, ...) @snprintf(ptr noundef nonnull dereferenceable(1) %data, i64 noundef 1024, ptr noundef nonnull @.str.13, ptr noundef %call13, i32 noundef %or) #18
  store i32 %call14, ptr %nd, align 8
  call void @_ZNSt7__cxx1112basic_stringIcSt11char_traitsIcESaIcEED1Ev(ptr noundef nonnull align 8 dereferenceable(32) %ref.tmp10) #18
  call void @_ZNSt7__cxx1112basic_stringIcSt11char_traitsIcESaIcEED1Ev(ptr noundef nonnull align 8 dereferenceable(32) %ref.tmp11) #18
  %2 = load i32, ptr %nd, align 8
  %cmp18 = icmp ugt i32 %2, 1024
  br i1 %cmp18, label %return.sink.split, label %return

lpad:                                             ; preds = %if.then3
  %3 = landingpad { ptr, i32 }
          cleanup
  call void @_ZNSt7__cxx1112basic_stringIcSt11char_traitsIcESaIcEED1Ev(ptr noundef nonnull align 8 dereferenceable(32) %ref.tmp11) #18
  resume { ptr, i32 } %3

if.end24:                                         ; preds = %if.then, %entry
  %data26 = getelementptr inbounds i8, ptr %nd, i64 4
  %name = getelementptr inbounds i8, ptr %src, i64 56
  %4 = load ptr, ptr %name, align 8
  %call28 = tail call i32 (ptr, i64, ptr, ...) @snprintf(ptr noundef nonnull dereferenceable(1) %data26, i64 noundef 1024, ptr noundef nonnull @.str.13, ptr noundef %4, i32 noundef %or) #18
  br label %return.sink.split

return.sink.split:                                ; preds = %invoke.cont, %if.end24
  %.sink = phi i32 [ %call28, %if.end24 ], [ 1024, %invoke.cont ]
  store i32 %.sink, ptr %nd, align 8
  br label %return

return:                                           ; preds = %return.sink.split, %invoke.cont
  ret void
}